ARM GAS  C:\Users\billy\AppData\Local\Temp\ccEczQZR.s 			page 1


   1              		.syntax unified
   2              		.cpu cortex-m3
   3              		.fpu softvfp
   4              		.eabi_attribute 20, 1
   5              		.eabi_attribute 21, 1
   6              		.eabi_attribute 23, 3
   7              		.eabi_attribute 24, 1
   8              		.eabi_attribute 25, 1
   9              		.eabi_attribute 26, 1
  10              		.eabi_attribute 30, 1
  11              		.eabi_attribute 34, 1
  12              		.eabi_attribute 18, 4
  13              		.thumb
  14              		.syntax unified
  15              		.file	"main.c"
  16              		.text
  17              	.Ltext0:
  18              		.cfi_sections	.debug_frame
  19              		.section	.text.StartUp,"ax",%progbits
  20              		.align	2
  21              		.global	StartUp
  22              		.thumb
  23              		.thumb_func
  24              		.type	StartUp, %function
  25              	StartUp:
  26              	.LFB65:
  27              		.file 1 "main.c"
   1:main.c        **** /******************************************************************************
   2:main.c        **** This program is free software; you can redistribute it and/or
   3:main.c        **** modify it under the terms of the GNU General Public License as
   4:main.c        **** published by the Free Software Foundation; either version 3 of
   5:main.c        **** the License, or (at your option) any later verison.
   6:main.c        **** 
   7:main.c        **** This program is distributed in the hope that it will be useful, but
   8:main.c        **** WITHOUT ANY WARRANTY; without even the implied warranty of
   9:main.c        **** MECHANTABILITY or FITNESS FOR A PARTICULAR PURPOSE.  See
  10:main.c        **** the GNU General Public License for more details.
  11:main.c        **** 
  12:main.c        **** You should have received a copy of the GNU General Public License
  13:main.c        **** along with this program; if not, write to the Free Software
  14:main.c        **** Foundation, Inc., 51 Franklin St, Fifth Floor, Boston, MA 02110-1301
  15:main.c        **** USA
  16:main.c        **** ***************************************************************************** */
  17:main.c        **** 
  18:main.c        **** /*****************************************************************************
  19:main.c        **** *  Project Name: CyController1
  20:main.c        **** *  Project Revision: 1.00
  21:main.c        **** *  Software Version: PSoC Creator 3.2 SP1
  22:main.c        **** *  Device Tested: CY8C5888LTI-LP097
  23:main.c        **** *  Compilers Tested: ARM GCC
  24:main.c        **** *  Related Hardware: CY8CKIT-059
  25:main.c        **** ***************************************************************************** */
  26:main.c        **** /* Project Description:
  27:main.c        ****  * This project will create a simple USB HID joystick for FRC. It has
  28:main.c        ****  * 8 analog inputs
  29:main.c        ****  * 22 digital inputs for buttons
  30:main.c        ****  * 12 digital indicator outputs
ARM GAS  C:\Users\billy\AppData\Local\Temp\ccEczQZR.s 			page 2


  31:main.c        **** ***************************************************************************** */
  32:main.c        **** 
  33:main.c        **** #include <project.h>
  34:main.c        **** #include <stdio.h>
  35:main.c        **** 
  36:main.c        **** /* 8 bytes for analog axis data */
  37:main.c        **** #define ANALOG_SIZE 0
  38:main.c        **** /* 4 bytes for 32 button inputs. This is the maximum number that WPILib / the Driver Station suppor
  39:main.c        **** #define BUTTON_SIZE 4
  40:main.c        **** /* 2 bytes for 12 output indicators such as LEDs */
  41:main.c        **** #define OUTPUT_SIZE 2
  42:main.c        **** 
  43:main.c        **** /* Endpoint 1 is IN (analog and buttons) */
  44:main.c        **** #define IN_EP  1
  45:main.c        **** /* Endpiont 2 is OUT (indicators) */
  46:main.c        **** #define OUT_EP 2
  47:main.c        **** 
  48:main.c        **** void StartUp (void); 		/* Function prototype for component startup API */
  49:main.c        **** void ReadAnalog (void);     /* Function prototype for reading and altering data for joystick inform
  50:main.c        **** void ReadButtons (void);    /* Function prototype for reading and altering data for digital button 
  51:main.c        **** void SetOutputs (void);     /* Prototype for driving digital outputs */
  52:main.c        **** 
  53:main.c        **** //static uint16 AnalogRaw[ANALOG_SIZE];   /* Raw ADC measurements */
  54:main.c        **** //static int16  AnalogData[ANALOG_SIZE];   /* Scaled ADC measurements */
  55:main.c        **** static int8 USB_Input_Data[ANALOG_SIZE + BUTTON_SIZE]; /* USB data to send to the PC */
  56:main.c        **** static uint8 USB_Output_Data[OUTPUT_SIZE]; /* USB data received from the PC */
  57:main.c        **** 
  58:main.c        **** int main()
  59:main.c        **** {    
  60:main.c        ****     uint16 outCount;
  61:main.c        ****     
  62:main.c        ****     StartUp(); 	/* Calls the proper start API for all the components */
  63:main.c        **** 	
  64:main.c        **** 	for(;;)
  65:main.c        ****     {
  66:main.c        ****     	while(!USBFS_1_bGetEPAckState(IN_EP)); 	/* Wait for ACK before loading data */
  67:main.c        ****         
  68:main.c        **** 		//ReadAnalog();	/* Calls function to read analog inputs */
  69:main.c        ****         ReadButtons();	/* Calls function to monitor button presses */
  70:main.c        ****         
  71:main.c        ****         /*Check to see if the IN Endpoint is empty. If so, load it with Input data to be tranfered 
  72:main.c        ****         if(USBFS_1_GetEPState(IN_EP) == USBFS_1_IN_BUFFER_EMPTY)
  73:main.c        ****         {
  74:main.c        **** 		    /* Load latest analog and button data into the IN EP and send */
  75:main.c        ****             USBFS_1_LoadInEP(IN_EP, (uint8 *)USB_Input_Data, sizeof(USB_Input_Data));   
  76:main.c        ****         }
  77:main.c        ****         
  78:main.c        ****         /* Check to see if the OUT Endpoint is full from a recieved transaction. */
  79:main.c        ****         if(USBFS_1_GetEPState(OUT_EP) == USBFS_1_OUT_BUFFER_FULL)
  80:main.c        ****         {
  81:main.c        ****             /* Get the number of bytes recieved */
  82:main.c        ****             outCount = USBFS_1_GetEPCount(OUT_EP);
  83:main.c        ****             /* Read the OUT endpoint and store data in OUT_Data_Buffer */
  84:main.c        ****             USBFS_1_ReadOutEP(OUT_EP, USB_Output_Data, outCount);
  85:main.c        ****             /* Re-enable OUT endpoint */
  86:main.c        ****             USBFS_1_EnableOutEP(OUT_EP);
  87:main.c        ****         }
ARM GAS  C:\Users\billy\AppData\Local\Temp\ccEczQZR.s 			page 3


  88:main.c        ****         
  89:main.c        ****         SetOutputs();   /* Set output values based on the data received from the out EP */
  90:main.c        ****     }
  91:main.c        **** }
  92:main.c        **** 
  93:main.c        **** void StartUp (void)
  94:main.c        **** {
  28              		.loc 1 94 0
  29              		.cfi_startproc
  30              		@ args = 0, pretend = 0, frame = 0
  31              		@ frame_needed = 0, uses_anonymous_args = 0
  32 0000 08B5     		push	{r3, lr}
  33              		.cfi_def_cfa_offset 8
  34              		.cfi_offset 3, -8
  35              		.cfi_offset 14, -4
  36              	.LVL0:
  95:main.c        **** 	uint8 i;
  96:main.c        ****     
  97:main.c        ****     /* Intialize USB Input EP data array */
  98:main.c        ****     for (i=0; i < sizeof(USB_Input_Data); i++)
  37              		.loc 1 98 0
  38 0002 0023     		movs	r3, #0
  39 0004 04E0     		b	.L2
  40              	.LVL1:
  41              	.L3:
  99:main.c        ****     {
 100:main.c        ****         USB_Input_Data[i] = 0;
  42              		.loc 1 100 0 discriminator 3
  43 0006 0021     		movs	r1, #0
  44 0008 104A     		ldr	r2, .L8
  45 000a D154     		strb	r1, [r2, r3]
  98:main.c        ****     {
  46              		.loc 1 98 0 discriminator 3
  47 000c 0133     		adds	r3, r3, #1
  48              	.LVL2:
  49 000e DBB2     		uxtb	r3, r3
  50              	.LVL3:
  51              	.L2:
  98:main.c        ****     {
  52              		.loc 1 98 0 is_stmt 0 discriminator 1
  53 0010 032B     		cmp	r3, #3
  54 0012 F8D9     		bls	.L3
  55 0014 0023     		movs	r3, #0
  56              	.LVL4:
  57 0016 05E0     		b	.L4
  58              	.LVL5:
  59              	.L5:
 101:main.c        ****     }
 102:main.c        ****     /* Intialize USB Output EP data array */
 103:main.c        ****     for (i=0; i < sizeof(USB_Output_Data); i++)
 104:main.c        ****     {
 105:main.c        ****         USB_Output_Data[i] = 0;
  60              		.loc 1 105 0 is_stmt 1 discriminator 3
  61 0018 0C4A     		ldr	r2, .L8
  62 001a 1A44     		add	r2, r2, r3
  63 001c 0021     		movs	r1, #0
  64 001e 1171     		strb	r1, [r2, #4]
ARM GAS  C:\Users\billy\AppData\Local\Temp\ccEczQZR.s 			page 4


 103:main.c        ****     {
  65              		.loc 1 103 0 discriminator 3
  66 0020 0133     		adds	r3, r3, #1
  67              	.LVL6:
  68 0022 DBB2     		uxtb	r3, r3
  69              	.LVL7:
  70              	.L4:
 103:main.c        ****     {
  71              		.loc 1 103 0 is_stmt 0 discriminator 1
  72 0024 012B     		cmp	r3, #1
  73 0026 F7D9     		bls	.L5
 106:main.c        ****     }
 107:main.c        ****     
 108:main.c        ****     CYGlobalIntEnable;           					/* Enable Global interrupts */
  74              		.loc 1 108 0 is_stmt 1
  75              		.syntax unified
  76              	@ 108 "main.c" 1
  77 0028 62B6     		CPSIE   i
  78              	@ 0 "" 2
 109:main.c        ****     //ADC_Start();        					        /* Initialize ADC */
 110:main.c        **** 	//ADC_StartConvert();								/* End ADC conversion */    
 111:main.c        **** 	USBFS_1_Start(0, USBFS_1_DWR_VDDD_OPERATION);	/* Start USBFS operation/device 0 and with 5V operat
  79              		.loc 1 111 0
  80              		.thumb
  81              		.syntax unified
  82 002a 0221     		movs	r1, #2
  83 002c 0020     		movs	r0, #0
  84 002e FFF7FEFF 		bl	USBFS_1_Start
  85              	.LVL8:
  86              	.L6:
 112:main.c        **** 	while(!USBFS_1_bGetConfiguration())
  87              		.loc 1 112 0 discriminator 1
  88 0032 FFF7FEFF 		bl	USBFS_1_GetConfiguration
  89              	.LVL9:
  90 0036 0028     		cmp	r0, #0
  91 0038 FBD0     		beq	.L6
 113:main.c        ****     {
 114:main.c        ****         /* Wait for Device to enumerate */
 115:main.c        ****     }			
 116:main.c        ****     
 117:main.c        ****     USBFS_1_LoadInEP(IN_EP, (uint8 *)USB_Input_Data, sizeof(USB_Input_Data)); /* Loads an inital va
  92              		.loc 1 117 0
  93 003a 0422     		movs	r2, #4
  94 003c 0349     		ldr	r1, .L8
  95 003e 0120     		movs	r0, #1
  96 0040 FFF7FEFF 		bl	USBFS_1_LoadInEP
  97              	.LVL10:
 118:main.c        ****     USBFS_1_EnableOutEP(OUT_EP); /* Enable the output endpoint */
  98              		.loc 1 118 0
  99 0044 0220     		movs	r0, #2
 100 0046 FFF7FEFF 		bl	USBFS_1_EnableOutEP
 101              	.LVL11:
 102 004a 08BD     		pop	{r3, pc}
 103              	.L9:
 104              		.align	2
 105              	.L8:
 106 004c 00000000 		.word	.LANCHOR0
ARM GAS  C:\Users\billy\AppData\Local\Temp\ccEczQZR.s 			page 5


 107              		.cfi_endproc
 108              	.LFE65:
 109              		.size	StartUp, .-StartUp
 110              		.section	.text.ReadAnalog,"ax",%progbits
 111              		.align	2
 112              		.global	ReadAnalog
 113              		.thumb
 114              		.thumb_func
 115              		.type	ReadAnalog, %function
 116              	ReadAnalog:
 117              	.LFB66:
 119:main.c        **** }
 120:main.c        **** 
 121:main.c        **** void ReadAnalog (void)
 122:main.c        **** {
 118              		.loc 1 122 0
 119              		.cfi_startproc
 120              		@ args = 0, pretend = 0, frame = 0
 121              		@ frame_needed = 0, uses_anonymous_args = 0
 122              		@ link register save eliminated.
 123              	.LVL12:
 124 0000 7047     		bx	lr
 125              		.cfi_endproc
 126              	.LFE66:
 127              		.size	ReadAnalog, .-ReadAnalog
 128 0002 00BF     		.section	.text.ReadButtons,"ax",%progbits
 129              		.align	2
 130              		.global	ReadButtons
 131              		.thumb
 132              		.thumb_func
 133              		.type	ReadButtons, %function
 134              	ReadButtons:
 135              	.LFB67:
 123:main.c        **** 	uint8 i;
 124:main.c        ****     
 125:main.c        ****     for(i=0; i<ANALOG_SIZE; i++)
 126:main.c        ****     {
 127:main.c        ****        // AnalogRaw[i] = ADC_GetResult16(i) >> 4;     /* Get ADC reading and keep just the 8 upper 
 128:main.c        ****        // AnalogData[i] = AnalogRaw[i] - 127;         /* Adjust axis to center the reading */
 129:main.c        ****        // if(AnalogData[i] > 127)
 130:main.c        ****        // {
 131:main.c        ****        //     AnalogData[i] = 127;
 132:main.c        ****        // }
 133:main.c        ****        // if(AnalogData[i] < -127)
 134:main.c        ****        // {
 135:main.c        ****        //     AnalogData[i] = -127;
 136:main.c        ****        // }
 137:main.c        ****         
 138:main.c        ****         /* Move analog data to USB array to prepare for sending */
 139:main.c        ****       //  USB_Input_Data[i] = AnalogData[i];
 140:main.c        ****     }
 141:main.c        **** }
 142:main.c        **** 
 143:main.c        **** void ReadButtons (void)
 144:main.c        **** {
 136              		.loc 1 144 0
 137              		.cfi_startproc
ARM GAS  C:\Users\billy\AppData\Local\Temp\ccEczQZR.s 			page 6


 138              		@ args = 0, pretend = 0, frame = 0
 139              		@ frame_needed = 0, uses_anonymous_args = 0
 140              		.loc 1 144 0
 141 0000 10B5     		push	{r4, lr}
 142              		.cfi_def_cfa_offset 8
 143              		.cfi_offset 4, -8
 144              		.cfi_offset 14, -4
 145:main.c        **** 	/* Read button values from status registers into USB array to prepare for sending */
 146:main.c        ****     USB_Input_Data[ANALOG_SIZE]   = ButtonReg1_Read(); /* First button byte is after the last analo
 145              		.loc 1 146 0
 146 0002 FFF7FEFF 		bl	ButtonReg1_Read
 147              	.LVL13:
 148 0006 064C     		ldr	r4, .L13
 149 0008 2070     		strb	r0, [r4]
 147:main.c        ****     USB_Input_Data[ANALOG_SIZE+1] = ButtonReg2_Read();
 150              		.loc 1 147 0
 151 000a FFF7FEFF 		bl	ButtonReg2_Read
 152              	.LVL14:
 153 000e 6070     		strb	r0, [r4, #1]
 148:main.c        ****     USB_Input_Data[ANALOG_SIZE+2] = ButtonReg3_Read();
 154              		.loc 1 148 0
 155 0010 FFF7FEFF 		bl	ButtonReg3_Read
 156              	.LVL15:
 157 0014 A070     		strb	r0, [r4, #2]
 149:main.c        ****     USB_Input_Data[ANALOG_SIZE+3] = ButtonReg4_Read();
 158              		.loc 1 149 0
 159 0016 FFF7FEFF 		bl	ButtonReg4_Read
 160              	.LVL16:
 161 001a E070     		strb	r0, [r4, #3]
 162 001c 10BD     		pop	{r4, pc}
 163              	.L14:
 164 001e 00BF     		.align	2
 165              	.L13:
 166 0020 00000000 		.word	.LANCHOR0
 167              		.cfi_endproc
 168              	.LFE67:
 169              		.size	ReadButtons, .-ReadButtons
 170              		.section	.text.main,"ax",%progbits
 171              		.align	2
 172              		.global	main
 173              		.thumb
 174              		.thumb_func
 175              		.type	main, %function
 176              	main:
 177              	.LFB64:
  59:main.c        ****     uint16 outCount;
 178              		.loc 1 59 0
 179              		.cfi_startproc
 180              		@ args = 0, pretend = 0, frame = 0
 181              		@ frame_needed = 0, uses_anonymous_args = 0
 182 0000 08B5     		push	{r3, lr}
 183              		.cfi_def_cfa_offset 8
 184              		.cfi_offset 3, -8
 185              		.cfi_offset 14, -4
  62:main.c        **** 	
 186              		.loc 1 62 0
 187 0002 FFF7FEFF 		bl	StartUp
ARM GAS  C:\Users\billy\AppData\Local\Temp\ccEczQZR.s 			page 7


 188              	.LVL17:
 189              	.L16:
  66:main.c        ****         
 190              		.loc 1 66 0 discriminator 1
 191 0006 0120     		movs	r0, #1
 192 0008 FFF7FEFF 		bl	USBFS_1_GetEPAckState
 193              	.LVL18:
 194 000c 0028     		cmp	r0, #0
 195 000e FAD0     		beq	.L16
  69:main.c        ****         
 196              		.loc 1 69 0
 197 0010 FFF7FEFF 		bl	ReadButtons
 198              	.LVL19:
  72:main.c        ****         {
 199              		.loc 1 72 0
 200 0014 0120     		movs	r0, #1
 201 0016 FFF7FEFF 		bl	USBFS_1_GetEPState
 202              	.LVL20:
 203 001a 0128     		cmp	r0, #1
 204 001c 03D1     		bne	.L17
  75:main.c        ****         }
 205              		.loc 1 75 0
 206 001e 0422     		movs	r2, #4
 207 0020 0949     		ldr	r1, .L21
 208 0022 FFF7FEFF 		bl	USBFS_1_LoadInEP
 209              	.LVL21:
 210              	.L17:
  79:main.c        ****         {
 211              		.loc 1 79 0
 212 0026 0220     		movs	r0, #2
 213 0028 FFF7FEFF 		bl	USBFS_1_GetEPState
 214              	.LVL22:
 215 002c 0128     		cmp	r0, #1
 216 002e EAD1     		bne	.L16
  82:main.c        ****             /* Read the OUT endpoint and store data in OUT_Data_Buffer */
 217              		.loc 1 82 0
 218 0030 0220     		movs	r0, #2
 219 0032 FFF7FEFF 		bl	USBFS_1_GetEPCount
 220              	.LVL23:
  84:main.c        ****             /* Re-enable OUT endpoint */
 221              		.loc 1 84 0
 222 0036 0246     		mov	r2, r0
 223 0038 0449     		ldr	r1, .L21+4
 224 003a 0220     		movs	r0, #2
 225              	.LVL24:
 226 003c FFF7FEFF 		bl	USBFS_1_ReadOutEP
 227              	.LVL25:
  86:main.c        ****         }
 228              		.loc 1 86 0
 229 0040 0220     		movs	r0, #2
 230 0042 FFF7FEFF 		bl	USBFS_1_EnableOutEP
 231              	.LVL26:
  90:main.c        **** }
 232              		.loc 1 90 0
 233 0046 DEE7     		b	.L16
 234              	.L22:
 235              		.align	2
ARM GAS  C:\Users\billy\AppData\Local\Temp\ccEczQZR.s 			page 8


 236              	.L21:
 237 0048 00000000 		.word	.LANCHOR0
 238 004c 04000000 		.word	.LANCHOR0+4
 239              		.cfi_endproc
 240              	.LFE64:
 241              		.size	main, .-main
 242              		.section	.text.SetOutputs,"ax",%progbits
 243              		.align	2
 244              		.global	SetOutputs
 245              		.thumb
 246              		.thumb_func
 247              		.type	SetOutputs, %function
 248              	SetOutputs:
 249              	.LFB68:
 150:main.c        ****   
 151:main.c        ****     
 152:main.c        **** }
 153:main.c        **** 
 154:main.c        **** void SetOutputs (void)
 155:main.c        **** {
 250              		.loc 1 155 0
 251              		.cfi_startproc
 252              		@ args = 0, pretend = 0, frame = 0
 253              		@ frame_needed = 0, uses_anonymous_args = 0
 254              		@ link register save eliminated.
 255 0000 7047     		bx	lr
 256              		.cfi_endproc
 257              	.LFE68:
 258              		.size	SetOutputs, .-SetOutputs
 259 0002 00BF     		.bss
 260              		.align	2
 261              		.set	.LANCHOR0,. + 0
 262              		.type	USB_Input_Data, %object
 263              		.size	USB_Input_Data, 4
 264              	USB_Input_Data:
 265 0000 00000000 		.space	4
 266              		.type	USB_Output_Data, %object
 267              		.size	USB_Output_Data, 2
 268              	USB_Output_Data:
 269 0004 0000     		.space	2
 270              		.text
 271              	.Letext0:
 272              		.file 2 "c:\\program files (x86)\\cypress\\psoc creator\\4.2\\psoc creator\\import\\gnu\\arm\\5.4.
 273              		.file 3 "c:\\program files (x86)\\cypress\\psoc creator\\4.2\\psoc creator\\import\\gnu\\arm\\5.4.
 274              		.file 4 "Generated_Source\\PSoC5/cytypes.h"
 275              		.file 5 "Generated_Source\\PSoC5/USBFS_1.h"
 276              		.file 6 "Generated_Source\\PSoC5/ButtonReg1.h"
 277              		.file 7 "Generated_Source\\PSoC5/ButtonReg2.h"
 278              		.file 8 "Generated_Source\\PSoC5/ButtonReg3.h"
 279              		.file 9 "Generated_Source\\PSoC5/ButtonReg4.h"
 280              		.file 10 "Generated_Source\\PSoC5/core_cm3.h"